target datalayout = "e-m:e-p270:32:32-p271:32:32-p272:64:64-i64:64-i128:128-f80:128-n8:16:32:64-S128"
target triple = "x86_64-pc-linux-gnu"

%struct._MdfdVec = type { i32, i32 }

@InRecovery = external global i8, align 1

; Function Attrs: nounwind uwtable
define dso_local zeroext i1 @mdprefetch(ptr noundef %0, i32 noundef %1, i32 noundef %2, i32 noundef %3) #0 {
  %5 = alloca i1, align 1
  %6 = alloca ptr, align 8
  %7 = alloca i32, align 4
  %8 = alloca i32, align 4
  %9 = alloca i32, align 4
  %10 = alloca i64, align 8
  %11 = alloca ptr, align 8
  %12 = alloca i32, align 4
  %13 = alloca i32, align 4
  store ptr %0, ptr %6, align 8
  store i32 %1, ptr %7, align 4
  store i32 %2, ptr %8, align 4
  store i32 %3, ptr %9, align 4
  %14 = load i32, ptr %8, align 4
  %15 = zext i32 %14 to i64
  %16 = load i32, ptr %9, align 4
  %17 = sext i32 %16 to i64
  %18 = add i64 %15, %17
  %19 = icmp ugt i64 %18, 4294967295
  br i1 %19, label %20, label %21

20:                                               ; preds = %4
  store i1 false, ptr %5, align 1
  br label %72

21:                                               ; preds = %4
  br label %22

22:                                               ; preds = %70, %21
  %23 = load i32, ptr %9, align 4
  %24 = icmp sgt i32 %23, 0
  br i1 %24, label %25, label %71

25:                                               ; preds = %22
  call void @llvm.lifetime.start.p0(i64 8, ptr %10) #10
  call void @llvm.lifetime.start.p0(i64 8, ptr %11) #10
  call void @llvm.lifetime.start.p0(i64 4, ptr %12) #10
  %26 = load ptr, ptr %6, align 8
  %27 = load i32, ptr %7, align 4
  %28 = load i32, ptr %8, align 4
  %29 = load i8, ptr @InRecovery, align 1, !range !4, !noundef !5
  %30 = trunc i8 %29 to i1
  %31 = select i1 %30, i32 2, i32 1
  %32 = call ptr @_mdfd_getseg(ptr noundef %26, i32 noundef %27, i32 noundef %28, i1 noundef zeroext false, i32 noundef %31)
  store ptr %32, ptr %11, align 8
  %33 = load ptr, ptr %11, align 8
  %34 = icmp eq ptr %33, null
  br i1 %34, label %35, label %36

35:                                               ; preds = %25
  store i1 false, ptr %5, align 1
  store i32 1, ptr %13, align 4
  br label %68

36:                                               ; preds = %25
  %37 = load i32, ptr %8, align 4
  %38 = urem i32 %37, 131072
  %39 = zext i32 %38 to i64
  %40 = mul i64 8192, %39
  store i64 %40, ptr %10, align 8
  %41 = load i32, ptr %9, align 4
  %42 = load i32, ptr %8, align 4
  %43 = urem i32 %42, 131072
  %44 = sub i32 131072, %43
  %45 = icmp ult i32 %41, %44
  br i1 %45, label %46, label %48

46:                                               ; preds = %36
  %47 = load i32, ptr %9, align 4
  br label %52

48:                                               ; preds = %36
  %49 = load i32, ptr %8, align 4
  %50 = urem i32 %49, 131072
  %51 = sub i32 131072, %50
  br label %52

52:                                               ; preds = %48, %46
  %53 = phi i32 [ %47, %46 ], [ %51, %48 ]
  store i32 %53, ptr %12, align 4
  %54 = load ptr, ptr %11, align 8
  %55 = getelementptr inbounds nuw %struct._MdfdVec, ptr %54, i32 0, i32 0
  %56 = load i32, ptr %55, align 4
  %57 = load i64, ptr %10, align 8
  %58 = load i32, ptr %12, align 4
  %59 = mul i32 8192, %58
  %60 = sext i32 %59 to i64
  %61 = call i32 @FilePrefetch(i32 noundef %56, i64 noundef %57, i64 noundef %60, i32 noundef 167772176)
  %62 = load i32, ptr %12, align 4
  %63 = load i32, ptr %8, align 4
  %64 = add i32 %63, %62
  store i32 %64, ptr %8, align 4
  %65 = load i32, ptr %12, align 4
  %66 = load i32, ptr %9, align 4
  %67 = sub i32 %66, %65
  store i32 %67, ptr %9, align 4
  store i32 0, ptr %13, align 4
  br label %68

68:                                               ; preds = %52, %35
  call void @llvm.lifetime.end.p0(i64 4, ptr %12) #10
  call void @llvm.lifetime.end.p0(i64 8, ptr %11) #10
  call void @llvm.lifetime.end.p0(i64 8, ptr %10) #10
  %69 = load i32, ptr %13, align 4
  switch i32 %69, label %74 [
    i32 0, label %70
    i32 1, label %72
  ]

70:                                               ; preds = %68
  br label %22, !llvm.loop !12

71:                                               ; preds = %22
  store i1 true, ptr %5, align 1
  br label %72

72:                                               ; preds = %71, %68, %20
  %73 = load i1, ptr %5, align 1
  ret i1 %73

74:                                               ; preds = %68
  unreachable
}