; Function Attrs: nounwind uwtable
define dso_local noundef zeroext i1 @mdprefetch(ptr noundef captures(none) %0, i32 noundef %1, i32 noundef %2, i32 noundef %3) local_unnamed_addr #0 {
  %5 = zext i32 %2 to i64
  %6 = sext i32 %3 to i64
  %7 = add nsw i64 %6, %5
  %8 = icmp ugt i64 %7, 4294967295
  br i1 %8, label %.thread, label %.preheader

.preheader:                                       ; preds = %4
  %9 = icmp sgt i32 %3, 0
  br i1 %9, label %.lr.ph, label %.thread

.lr.ph:                                           ; preds = %.preheader, %14
  %.02130 = phi i32 [ %24, %14 ], [ %2, %.preheader ]
  %.02329 = phi i32 [ %25, %14 ], [ %3, %.preheader ]
  %10 = load i8, ptr @InRecovery, align 1, !range !4, !noundef !5
  %11 = trunc nuw i8 %10 to i1
  %12 = select i1 %11, i32 2, i32 1
  %13 = tail call fastcc ptr @_mdfd_getseg(ptr noundef %0, i32 noundef %1, i32 noundef %.02130, i1 noundef zeroext false, i32 noundef %12)
  %.not.not = icmp ne ptr %13, null
  br i1 %.not.not, label %14, label %.thread

14:                                               ; preds = %.lr.ph
  %15 = and i32 %.02130, 131071
  %16 = shl nuw nsw i32 %15, 13
  %17 = zext nneg i32 %16 to i64
  %18 = sub nuw nsw i32 131072, %15
  %19 = tail call i32 @llvm.umin.i32(i32 %.02329, i32 %18)
  %20 = load i32, ptr %13, align 4
  %21 = shl nuw nsw i32 %19, 13
  %22 = zext nneg i32 %21 to i64
  %23 = tail call i32 @FilePrefetch(i32 noundef %20, i64 noundef %17, i64 noundef %22, i32 noundef 167772176) #15
  %24 = add i32 %19, %.02130
  %25 = sub nsw i32 %.02329, %19
  %26 = icmp sgt i32 %25, 0
  br i1 %26, label %.lr.ph, label %.thread

.thread:                                          ; preds = %14, %.lr.ph, %.preheader, %4
  %.020 = phi i1 [ false, %4 ], [ true, %.preheader ], [ %.not.not, %.lr.ph ], [ %.not.not, %14 ]
  ret i1 %.020
}